; Function Attrs: nounwind uwtable
define internal range(i32 1, 3) i32 @test_stats_prefix_record_set() #0 {
  tail call void @stats_prefix_clear() #21
  tail call void @stats_prefix_record_set(ptr noundef nonnull @.str.80, i64 noundef 7) #21
  %1 = tail call ptr @stats_prefix_find(ptr noundef nonnull @.str.80, i64 noundef 7) #21
  %2 = icmp eq ptr %1, null
  br i1 %2, label %27, label %3

3:                                                ; preds = %0
  %4 = getelementptr inbounds nuw i8, ptr %1, i64 16
  %5 = load i64, ptr %4, align 8, !tbaa !21
  %6 = icmp eq i64 %5, 0
  br i1 %6, label %8, label %7

7:                                                ; preds = %3
  tail call void @__assert_fail(ptr noundef nonnull @.str.88, ptr noundef nonnull @.str.62, i32 noundef 298, ptr noundef nonnull @__PRETTY_FUNCTION__.test_stats_prefix_record_set) #22
  unreachable

8:                                                ; preds = %3
  %9 = getelementptr inbounds nuw i8, ptr %1, i64 40
  %10 = load i64, ptr %9, align 8, !tbaa !26
  %11 = icmp eq i64 %10, 0
  br i1 %11, label %13, label %12

12:                                               ; preds = %8
  tail call void @__assert_fail(ptr noundef nonnull @.str.82, ptr noundef nonnull @.str.62, i32 noundef 299, ptr noundef nonnull @__PRETTY_FUNCTION__.test_stats_prefix_record_set) #22
  unreachable

13:                                               ; preds = %8
  %14 = getelementptr inbounds nuw i8, ptr %1, i64 32
  %15 = load i64, ptr %14, align 8, !tbaa !25
  %16 = icmp eq i64 %15, 0
  br i1 %16, label %18, label %17

17:                                               ; preds = %13
  tail call void @__assert_fail(ptr noundef nonnull @.str.91, ptr noundef nonnull @.str.62, i32 noundef 300, ptr noundef nonnull @__PRETTY_FUNCTION__.test_stats_prefix_record_set) #22
  unreachable

18:                                               ; preds = %13
  %19 = getelementptr inbounds nuw i8, ptr %1, i64 24
  %20 = load i64, ptr %19, align 8, !tbaa !24
  %21 = icmp eq i64 %20, 1
  br i1 %21, label %23, label %22

22:                                               ; preds = %18
  tail call void @__assert_fail(ptr noundef nonnull @.str.92, ptr noundef nonnull @.str.62, i32 noundef 301, ptr noundef nonnull @__PRETTY_FUNCTION__.test_stats_prefix_record_set) #22
  unreachable

23:                                               ; preds = %18
  tail call void @stats_prefix_record_delete(ptr noundef nonnull @.str.87, i64 noundef 4) #21
  %24 = load i64, ptr %19, align 8, !tbaa !24
  %25 = icmp eq i64 %24, 1
  br i1 %25, label %27, label %26

26:                                               ; preds = %23
  tail call void @__assert_fail(ptr noundef nonnull @.str.92, ptr noundef nonnull @.str.62, i32 noundef 303, ptr noundef nonnull @__PRETTY_FUNCTION__.test_stats_prefix_record_set) #22
  unreachable

27:                                               ; preds = %23, %0
  %.0 = phi i32 [ 2, %0 ], [ 1, %23 ]
  ret i32 %.0
}